/*
 * Intel ACPI Component Architecture
 * AML/ASL+ Disassembler version 20200528 (64-bit version)
 * Copyright (c) 2000 - 2020 Intel Corporation
 * 
 * Disassembly of wsmt.dat, Wed Jun 24 17:47:37 2020
 *
 * ACPI Data Table [WSMT]
 *
 * Format: [HexOffset DecimalOffset ByteLength]  FieldName : FieldValue
 */

[000h 0000   4]                    Signature : "WSMT"    [Windows SMM Security Mitigations Table]
[004h 0004   4]                 Table Length : 00000028
[008h 0008   1]                     Revision : 01
[009h 0009   1]                     Checksum : 91
[00Ah 0010   6]                       Oem ID : "MSFT  "
[010h 0016   8]                 Oem Table ID : "MSFT    "
[018h 0024   4]                 Oem Revision : 00000000
[01Ch 0028   4]              Asl Compiler ID : "0000"
[020h 0032   4]        Asl Compiler Revision : 00000000

[024h 0036   4]             Protection Flags : 00000007
                          FIXED_COMM_BUFFERS : 1
           COMM_BUFFER_NESTED_PTR_PROTECTION : 1
                  SYSTEM_RESOURCE_PROTECTION : 1

Raw Table Data: Length 40 (0x28)

    0000: 57 53 4D 54 28 00 00 00 01 91 4D 53 46 54 20 20  // WSMT(.....MSFT  
    0010: 4D 53 46 54 20 20 20 20 00 00 00 00 30 30 30 30  // MSFT    ....0000
    0020: 00 00 00 00 07 00 00 00                          // ........
