/*
 * Intel ACPI Component Architecture
 * AML/ASL+ Disassembler version 20190816 (64-bit version)
 * Copyright (c) 2000 - 2019 Intel Corporation
 * 
 * Disassembly of fpdt.dat, Sat Oct 26 11:48:06 2019
 *
 * ACPI Data Table [FPDT]
 *
 * Format: [HexOffset DecimalOffset ByteLength]  FieldName : FieldValue
 */

[000h 0000   4]                    Signature : "FPDT"    [Firmware Performance Data Table]
[004h 0004   4]                 Table Length : 00000034
[008h 0008   1]                     Revision : 01
[009h 0009   1]                     Checksum : CF
[00Ah 0010   6]                       Oem ID : "MSFT  "
[010h 0016   8]                 Oem Table ID : "MSFT    "
[018h 0024   4]                 Oem Revision : 00000002
[01Ch 0028   4]              Asl Compiler ID : "MSFT"
[020h 0032   4]        Asl Compiler Revision : 20160422


[024h 0036   2]                Subtable Type : 0000
[026h 0038   1]                       Length : 10
[027h 0039   1]                     Revision : 01
[028h 0040   4]                     Reserved : 00000000
[02Ch 0044   8]     FPDT Boot Record Address : 000000007BF68000

Raw Table Data: Length 52 (0x34)

    0000: 46 50 44 54 34 00 00 00 01 CF 4D 53 46 54 20 20  // FPDT4.....MSFT  
    0010: 4D 53 46 54 20 20 20 20 02 00 00 00 4D 53 46 54  // MSFT    ....MSFT
    0020: 22 04 16 20 00 00 10 01 00 00 00 00 00 80 F6 7B  // ".. ...........{
    0030: 00 00 00 00                                      // ....
