/*
 * Intel ACPI Component Architecture
 * AML/ASL+ Disassembler version 20190816 (64-bit version)
 * Copyright (c) 2000 - 2019 Intel Corporation
 * 
 * Disassembly of mcfg.dat, Wed Oct 23 19:38:42 2019
 *
 * ACPI Data Table [MCFG]
 *
 * Format: [HexOffset DecimalOffset ByteLength]  FieldName : FieldValue
 */

[000h 0000   4]                    Signature : "MCFG"    [Memory Mapped Configuration table]
[004h 0004   4]                 Table Length : 0000003C
[008h 0008   1]                     Revision : 01
[009h 0009   1]                     Checksum : A1
[00Ah 0010   6]                       Oem ID : "MSFT  "
[010h 0016   8]                 Oem Table ID : "MSFT    "
[018h 0024   4]                 Oem Revision : 00000000
[01Ch 0028   4]              Asl Compiler ID : "AMD "
[020h 0032   4]        Asl Compiler Revision : 00000000

[024h 0036   8]                     Reserved : 0000000000000000

[02Ch 0044   8]                 Base Address : 00000000E0000000
[034h 0052   2]         Segment Group Number : 0000
[036h 0054   1]             Start Bus Number : 00
[037h 0055   1]               End Bus Number : FF
[038h 0056   4]                     Reserved : 00000000

Raw Table Data: Length 60 (0x3C)

    0000: 4D 43 46 47 3C 00 00 00 01 A1 4D 53 46 54 20 20  // MCFG<.....MSFT  
    0010: 4D 53 46 54 20 20 20 20 00 00 00 00 41 4D 44 20  // MSFT    ....AMD 
    0020: 00 00 00 00 00 00 00 00 00 00 00 00 00 00 00 E0  // ................
    0030: 00 00 00 00 00 00 00 FF 00 00 00 00              // ............
