/*
 * Intel ACPI Component Architecture
 * AML/ASL+ Disassembler version 20251212 (64-bit version)
 * Copyright (c) 2000 - 2025 Intel Corporation
 * 
 * Disassembly of fpdt.dat
 *
 * ACPI Data Table [FPDT]
 *
 * Format: [HexOffset DecimalOffset ByteLength]  FieldName : FieldValue (in hex)
 */

[000h 0000 004h]                   Signature : "FPDT"    [Firmware Performance Data Table]
[004h 0004 004h]                Table Length : 00000034
[008h 0008 001h]                    Revision : 01
[009h 0009 001h]                    Checksum : EE
[00Ah 0010 006h]                      Oem ID : "INTEL "
[010h 0016 008h]                Oem Table ID : "EDK2    "
[018h 0024 004h]                Oem Revision : 00000002
[01Ch 0028 004h]             Asl Compiler ID : "    "
[020h 0032 004h]       Asl Compiler Revision : 01000013


[024h 0036 002h]               Subtable Type : 0000
[026h 0038 001h]                      Length : 10
[027h 0039 001h]                    Revision : 01
[028h 0040 004h]                    Reserved : 00000000
[02Ch 0044 008h]    FPDT Boot Record Address : 0000000071F58000

Raw Table Data: Length 52 (0x34)

    0000: 46 50 44 54 34 00 00 00 01 EE 49 4E 54 45 4C 20  // FPDT4.....INTEL 
    0010: 45 44 4B 32 20 20 20 20 02 00 00 00 20 20 20 20  // EDK2    ....    
    0020: 13 00 00 01 00 00 10 01 00 00 00 00 00 80 F5 71  // ...............q
    0030: 00 00 00 00                                      // ....
