/*
 * Intel ACPI Component Architecture
 * AML/ASL+ Disassembler version 20251212 (64-bit version)
 * Copyright (c) 2000 - 2025 Intel Corporation
 * 
 * Disassembly of msdm.dat
 *
 * ACPI Data Table [MSDM]
 *
 * Format: [HexOffset DecimalOffset ByteLength]  FieldName : FieldValue (in hex)
 */

[000h 0000 004h]                   Signature : "MSDM"    [Microsoft Data Management Table]
[004h 0004 004h]                Table Length : 00000055
[008h 0008 001h]                    Revision : 01
[009h 0009 001h]                    Checksum : 47
[00Ah 0010 006h]                      Oem ID : "MSFT  "
[010h 0016 008h]                Oem Table ID : ""
[018h 0024 004h]                Oem Revision : 00000001
[01Ch 0028 004h]             Asl Compiler ID : "MSFT"
[020h 0032 004h]       Asl Compiler Revision : 00000001

[024h 0036 031h] Software Licensing Structure : 01 00 00 00 00 00 00 00 01 00 00 00 00 00 00 00 /* ................ */\
/* 034h 0052  16 */                            1D 00 00 00 37 37 32 59 44 2D 4E 42 52 32 4A 2D /* ....772YD-NBR2J- */\
/* 044h 0068  16 */                            4D 43 54 48 34 2D 48 47 32 39 36 2D 4B 54 50 4B /* MCTH4-HG296-KTPK */\
/* 054h 0084   1 */                            44                                              /* D */\

Raw Table Data: Length 85 (0x55)

    0000: 4D 53 44 4D 55 00 00 00 01 47 4D 53 46 54 20 20  // MSDMU....GMSFT  
    0010: 00 00 00 00 00 00 00 00 01 00 00 00 4D 53 46 54  // ............MSFT
    0020: 01 00 00 00 01 00 00 00 00 00 00 00 01 00 00 00  // ................
    0030: 00 00 00 00 1D 00 00 00 37 37 32 59 44 2D 4E 42  // ........772YD-NB
    0040: 52 32 4A 2D 4D 43 54 48 34 2D 48 47 32 39 36 2D  // R2J-MCTH4-HG296-
    0050: 4B 54 50 4B 44                                   // KTPKD
