/*
 * Intel ACPI Component Architecture
 * AML/ASL+ Disassembler version 20190816 (64-bit version)
 * Copyright (c) 2000 - 2019 Intel Corporation
 * 
 * Disassembly of fpdt.dat, Wed Oct 23 19:38:42 2019
 *
 * ACPI Data Table [FPDT]
 *
 * Format: [HexOffset DecimalOffset ByteLength]  FieldName : FieldValue
 */

[000h 0000   4]                    Signature : "FPDT"    [Firmware Performance Data Table]
[004h 0004   4]                 Table Length : 00000034
[008h 0008   1]                     Revision : 01
[009h 0009   1]                     Checksum : E0
[00Ah 0010   6]                       Oem ID : "MSFT  "
[010h 0016   8]                 Oem Table ID : "MSFT    "
[018h 0024   4]                 Oem Revision : 00000001
[01Ch 0028   4]              Asl Compiler ID : "AMD "
[020h 0032   4]        Asl Compiler Revision : 00000001


[024h 0036   2]                Subtable Type : 0000
[026h 0038   1]                       Length : 10
[027h 0039   1]                     Revision : 01
[028h 0040   4]                     Reserved : 00000000
[02Ch 0044   8]     FPDT Boot Record Address : 00000000CE368000

Raw Table Data: Length 52 (0x34)

    0000: 46 50 44 54 34 00 00 00 01 E0 4D 53 46 54 20 20  // FPDT4.....MSFT  
    0010: 4D 53 46 54 20 20 20 20 01 00 00 00 41 4D 44 20  // MSFT    ....AMD 
    0020: 01 00 00 00 00 00 10 01 00 00 00 00 00 80 36 CE  // ..............6.
    0030: 00 00 00 00                                      // ....
